target datalayout = "e-m:e-p270:32:32-p271:32:32-p272:64:64-i64:64-i128:128-f80:128-n8:16:32:64-S128"
target triple = "x86_64-pc-linux-gnu"

@ff_crop_tab = external hidden constant [2304 x i8], align 16

; Function Attrs: nounwind uwtable
define internal void @put_rv30_tpel8_hvv_lowpass(ptr noundef %0, ptr noundef %1, i32 noundef %2, i32 noundef %3) #3 {
  %5 = alloca ptr, align 8
  %6 = alloca ptr, align 8
  %7 = alloca i32, align 4
  %8 = alloca i32, align 4
  %9 = alloca i32, align 4
  %10 = alloca i32, align 4
  %11 = alloca ptr, align 8
  %12 = alloca i32, align 4
  %13 = alloca i32, align 4
  store ptr %0, ptr %5, align 8, !tbaa !10
  store ptr %1, ptr %6, align 8, !tbaa !10
  store i32 %2, ptr %7, align 4, !tbaa !14
  store i32 %3, ptr %8, align 4, !tbaa !14
  call void @llvm.lifetime.start.p0(i64 4, ptr %9) #4
  store i32 8, ptr %9, align 4, !tbaa !14
  call void @llvm.lifetime.start.p0(i64 4, ptr %10) #4
  store i32 8, ptr %10, align 4, !tbaa !14
  call void @llvm.lifetime.start.p0(i64 8, ptr %11) #4
  store ptr getelementptr inbounds (i8, ptr @ff_crop_tab, i64 1024), ptr %11, align 8, !tbaa !10
  call void @llvm.lifetime.start.p0(i64 4, ptr %12) #4
  call void @llvm.lifetime.start.p0(i64 4, ptr %13) #4
  store i32 0, ptr %13, align 4, !tbaa !14
  br label %14

14:                                               ; preds = %227, %4
  %15 = load i32, ptr %13, align 4, !tbaa !14
  %16 = icmp slt i32 %15, 8
  br i1 %16, label %17, label %230

17:                                               ; preds = %14
  store i32 0, ptr %12, align 4, !tbaa !14
  br label %18

18:                                               ; preds = %215, %17
  %19 = load i32, ptr %12, align 4, !tbaa !14
  %20 = icmp slt i32 %19, 8
  br i1 %20, label %21, label %218

21:                                               ; preds = %18
  %22 = load ptr, ptr %11, align 8, !tbaa !10
  %23 = load ptr, ptr %6, align 8, !tbaa !10
  %24 = load i32, ptr %8, align 4, !tbaa !14
  %25 = mul nsw i32 %24, -1
  %26 = load i32, ptr %12, align 4, !tbaa !14
  %27 = add nsw i32 %25, %26
  %28 = sub nsw i32 %27, 1
  %29 = sext i32 %28 to i64
  %30 = getelementptr inbounds i8, ptr %23, i64 %29
  %31 = load i8, ptr %30, align 1, !tbaa !16
  %32 = zext i8 %31 to i32
  %33 = load ptr, ptr %6, align 8, !tbaa !10
  %34 = load i32, ptr %8, align 4, !tbaa !14
  %35 = mul nsw i32 %34, -1
  %36 = load i32, ptr %12, align 4, !tbaa !14
  %37 = add nsw i32 %35, %36
  %38 = sext i32 %37 to i64
  %39 = getelementptr inbounds i8, ptr %33, i64 %38
  %40 = load i8, ptr %39, align 1, !tbaa !16
  %41 = zext i8 %40 to i32
  %42 = mul nsw i32 12, %41
  %43 = sub nsw i32 %32, %42
  %44 = load ptr, ptr %6, align 8, !tbaa !10
  %45 = load i32, ptr %8, align 4, !tbaa !14
  %46 = mul nsw i32 %45, -1
  %47 = load i32, ptr %12, align 4, !tbaa !14
  %48 = add nsw i32 %46, %47
  %49 = add nsw i32 %48, 1
  %50 = sext i32 %49 to i64
  %51 = getelementptr inbounds i8, ptr %44, i64 %50
  %52 = load i8, ptr %51, align 1, !tbaa !16
  %53 = zext i8 %52 to i32
  %54 = mul nsw i32 6, %53
  %55 = sub nsw i32 %43, %54
  %56 = load ptr, ptr %6, align 8, !tbaa !10
  %57 = load i32, ptr %8, align 4, !tbaa !14
  %58 = mul nsw i32 %57, -1
  %59 = load i32, ptr %12, align 4, !tbaa !14
  %60 = add nsw i32 %58, %59
  %61 = add nsw i32 %60, 2
  %62 = sext i32 %61 to i64
  %63 = getelementptr inbounds i8, ptr %56, i64 %62
  %64 = load i8, ptr %63, align 1, !tbaa !16
  %65 = zext i8 %64 to i32
  %66 = add nsw i32 %55, %65
  %67 = load ptr, ptr %6, align 8, !tbaa !10
  %68 = load i32, ptr %8, align 4, !tbaa !14
  %69 = mul nsw i32 %68, 0
  %70 = load i32, ptr %12, align 4, !tbaa !14
  %71 = add nsw i32 %69, %70
  %72 = sub nsw i32 %71, 1
  %73 = sext i32 %72 to i64
  %74 = getelementptr inbounds i8, ptr %67, i64 %73
  %75 = load i8, ptr %74, align 1, !tbaa !16
  %76 = zext i8 %75 to i32
  %77 = mul nsw i32 -6, %76
  %78 = add nsw i32 %66, %77
  %79 = load ptr, ptr %6, align 8, !tbaa !10
  %80 = load i32, ptr %8, align 4, !tbaa !14
  %81 = mul nsw i32 %80, 0
  %82 = load i32, ptr %12, align 4, !tbaa !14
  %83 = add nsw i32 %81, %82
  %84 = sext i32 %83 to i64
  %85 = getelementptr inbounds i8, ptr %79, i64 %84
  %86 = load i8, ptr %85, align 1, !tbaa !16
  %87 = zext i8 %86 to i32
  %88 = mul nsw i32 72, %87
  %89 = add nsw i32 %78, %88
  %90 = load ptr, ptr %6, align 8, !tbaa !10
  %91 = load i32, ptr %8, align 4, !tbaa !14
  %92 = mul nsw i32 %91, 0
  %93 = load i32, ptr %12, align 4, !tbaa !14
  %94 = add nsw i32 %92, %93
  %95 = add nsw i32 %94, 1
  %96 = sext i32 %95 to i64
  %97 = getelementptr inbounds i8, ptr %90, i64 %96
  %98 = load i8, ptr %97, align 1, !tbaa !16
  %99 = zext i8 %98 to i32
  %100 = mul nsw i32 36, %99
  %101 = add nsw i32 %89, %100
  %102 = load ptr, ptr %6, align 8, !tbaa !10
  %103 = load i32, ptr %8, align 4, !tbaa !14
  %104 = mul nsw i32 %103, 0
  %105 = load i32, ptr %12, align 4, !tbaa !14
  %106 = add nsw i32 %104, %105
  %107 = add nsw i32 %106, 2
  %108 = sext i32 %107 to i64
  %109 = getelementptr inbounds i8, ptr %102, i64 %108
  %110 = load i8, ptr %109, align 1, !tbaa !16
  %111 = zext i8 %110 to i32
  %112 = mul nsw i32 6, %111
  %113 = sub nsw i32 %101, %112
  %114 = load ptr, ptr %6, align 8, !tbaa !10
  %115 = load i32, ptr %8, align 4, !tbaa !14
  %116 = mul nsw i32 %115, 1
  %117 = load i32, ptr %12, align 4, !tbaa !14
  %118 = add nsw i32 %116, %117
  %119 = sub nsw i32 %118, 1
  %120 = sext i32 %119 to i64
  %121 = getelementptr inbounds i8, ptr %114, i64 %120
  %122 = load i8, ptr %121, align 1, !tbaa !16
  %123 = zext i8 %122 to i32
  %124 = mul nsw i32 -12, %123
  %125 = add nsw i32 %113, %124
  %126 = load ptr, ptr %6, align 8, !tbaa !10
  %127 = load i32, ptr %8, align 4, !tbaa !14
  %128 = mul nsw i32 %127, 1
  %129 = load i32, ptr %12, align 4, !tbaa !14
  %130 = add nsw i32 %128, %129
  %131 = sext i32 %130 to i64
  %132 = getelementptr inbounds i8, ptr %126, i64 %131
  %133 = load i8, ptr %132, align 1, !tbaa !16
  %134 = zext i8 %133 to i32
  %135 = mul nsw i32 144, %134
  %136 = add nsw i32 %125, %135
  %137 = load ptr, ptr %6, align 8, !tbaa !10
  %138 = load i32, ptr %8, align 4, !tbaa !14
  %139 = mul nsw i32 %138, 1
  %140 = load i32, ptr %12, align 4, !tbaa !14
  %141 = add nsw i32 %139, %140
  %142 = add nsw i32 %141, 1
  %143 = sext i32 %142 to i64
  %144 = getelementptr inbounds i8, ptr %137, i64 %143
  %145 = load i8, ptr %144, align 1, !tbaa !16
  %146 = zext i8 %145 to i32
  %147 = mul nsw i32 72, %146
  %148 = add nsw i32 %136, %147
  %149 = load ptr, ptr %6, align 8, !tbaa !10
  %150 = load i32, ptr %8, align 4, !tbaa !14
  %151 = mul nsw i32 %150, 1
  %152 = load i32, ptr %12, align 4, !tbaa !14
  %153 = add nsw i32 %151, %152
  %154 = add nsw i32 %153, 2
  %155 = sext i32 %154 to i64
  %156 = getelementptr inbounds i8, ptr %149, i64 %155
  %157 = load i8, ptr %156, align 1, !tbaa !16
  %158 = zext i8 %157 to i32
  %159 = mul nsw i32 12, %158
  %160 = sub nsw i32 %148, %159
  %161 = load ptr, ptr %6, align 8, !tbaa !10
  %162 = load i32, ptr %8, align 4, !tbaa !14
  %163 = mul nsw i32 %162, 2
  %164 = load i32, ptr %12, align 4, !tbaa !14
  %165 = add nsw i32 %163, %164
  %166 = sub nsw i32 %165, 1
  %167 = sext i32 %166 to i64
  %168 = getelementptr inbounds i8, ptr %161, i64 %167
  %169 = load i8, ptr %168, align 1, !tbaa !16
  %170 = zext i8 %169 to i32
  %171 = add nsw i32 %160, %170
  %172 = load ptr, ptr %6, align 8, !tbaa !10
  %173 = load i32, ptr %8, align 4, !tbaa !14
  %174 = mul nsw i32 %173, 2
  %175 = load i32, ptr %12, align 4, !tbaa !14
  %176 = add nsw i32 %174, %175
  %177 = sext i32 %176 to i64
  %178 = getelementptr inbounds i8, ptr %172, i64 %177
  %179 = load i8, ptr %178, align 1, !tbaa !16
  %180 = zext i8 %179 to i32
  %181 = mul nsw i32 12, %180
  %182 = sub nsw i32 %171, %181
  %183 = load ptr, ptr %6, align 8, !tbaa !10
  %184 = load i32, ptr %8, align 4, !tbaa !14
  %185 = mul nsw i32 %184, 2
  %186 = load i32, ptr %12, align 4, !tbaa !14
  %187 = add nsw i32 %185, %186
  %188 = add nsw i32 %187, 1
  %189 = sext i32 %188 to i64
  %190 = getelementptr inbounds i8, ptr %183, i64 %189
  %191 = load i8, ptr %190, align 1, !tbaa !16
  %192 = zext i8 %191 to i32
  %193 = mul nsw i32 6, %192
  %194 = sub nsw i32 %182, %193
  %195 = load ptr, ptr %6, align 8, !tbaa !10
  %196 = load i32, ptr %8, align 4, !tbaa !14
  %197 = mul nsw i32 %196, 2
  %198 = load i32, ptr %12, align 4, !tbaa !14
  %199 = add nsw i32 %197, %198
  %200 = add nsw i32 %199, 2
  %201 = sext i32 %200 to i64
  %202 = getelementptr inbounds i8, ptr %195, i64 %201
  %203 = load i8, ptr %202, align 1, !tbaa !16
  %204 = zext i8 %203 to i32
  %205 = add nsw i32 %194, %204
  %206 = add nsw i32 %205, 128
  %207 = ashr i32 %206, 8
  %208 = sext i32 %207 to i64
  %209 = getelementptr inbounds i8, ptr %22, i64 %208
  %210 = load i8, ptr %209, align 1, !tbaa !16
  %211 = load ptr, ptr %5, align 8, !tbaa !10
  %212 = load i32, ptr %12, align 4, !tbaa !14
  %213 = sext i32 %212 to i64
  %214 = getelementptr inbounds i8, ptr %211, i64 %213
  store i8 %210, ptr %214, align 1, !tbaa !16
  br label %215

215:                                              ; preds = %21
  %216 = load i32, ptr %12, align 4, !tbaa !14
  %217 = add nsw i32 %216, 1
  store i32 %217, ptr %12, align 4, !tbaa !14
  br label %18, !llvm.loop !24

218:                                              ; preds = %18
  %219 = load i32, ptr %8, align 4, !tbaa !14
  %220 = load ptr, ptr %6, align 8, !tbaa !10
  %221 = sext i32 %219 to i64
  %222 = getelementptr inbounds i8, ptr %220, i64 %221
  store ptr %222, ptr %6, align 8, !tbaa !10
  %223 = load i32, ptr %7, align 4, !tbaa !14
  %224 = load ptr, ptr %5, align 8, !tbaa !10
  %225 = sext i32 %223 to i64
  %226 = getelementptr inbounds i8, ptr %224, i64 %225
  store ptr %226, ptr %5, align 8, !tbaa !10
  br label %227

227:                                              ; preds = %218
  %228 = load i32, ptr %13, align 4, !tbaa !14
  %229 = add nsw i32 %228, 1
  store i32 %229, ptr %13, align 4, !tbaa !14
  br label %14, !llvm.loop !25

230:                                              ; preds = %14
  call void @llvm.lifetime.end.p0(i64 4, ptr %13) #4
  call void @llvm.lifetime.end.p0(i64 4, ptr %12) #4
  call void @llvm.lifetime.end.p0(i64 8, ptr %11) #4
  call void @llvm.lifetime.end.p0(i64 4, ptr %10) #4
  call void @llvm.lifetime.end.p0(i64 4, ptr %9) #4
  ret void
}

; Function Attrs: nounwind uwtable
define internal void @put_rv30_tpel8_mc12_c(ptr noundef %0, ptr noundef %1, i64 noundef %2) #3 {
  %4 = alloca ptr, align 8
  %5 = alloca ptr, align 8
  %6 = alloca i64, align 8
  store ptr %0, ptr %4, align 8, !tbaa !10
  store ptr %1, ptr %5, align 8, !tbaa !10
  store i64 %2, ptr %6, align 8, !tbaa !12
  %7 = load ptr, ptr %4, align 8, !tbaa !10
  %8 = load ptr, ptr %5, align 8, !tbaa !10
  %9 = load i64, ptr %6, align 8, !tbaa !12
  %10 = trunc i64 %9 to i32
  %11 = load i64, ptr %6, align 8, !tbaa !12
  %12 = trunc i64 %11 to i32
  call void @put_rv30_tpel8_hvv_lowpass(ptr noundef %7, ptr noundef %8, i32 noundef %10, i32 noundef %12)
  ret void
}